; Function Attrs: mustprogress uwtable
define dso_local void @_ZN19BM_stdvector_Resize4BodyEv() local_unnamed_addr #3 align 2 personality ptr @__gxx_personality_v0 {
  %1 = alloca %"class.std::vector", align 8
  %2 = alloca i32, align 4
  call void @llvm.memset.p0.i64(ptr noundef nonnull align 8 dereferenceable(24) %1, i8 0, i64 24, i1 false)
  store i32 2, ptr %2, align 4
  invoke void @_ZNSt6vectorIiSaIiEE14_M_fill_insertEN9__gnu_cxx17__normal_iteratorIPiS1_EEmRKi(ptr noundef nonnull align 8 dereferenceable(24) %1, ptr null, i64 noundef 100000, ptr noundef nonnull align 4 dereferenceable(4) %2)
          to label %_ZNSt6vectorIiSaIiEE6resizeEmRKi.exit unwind label %6

_ZNSt6vectorIiSaIiEE6resizeEmRKi.exit:            ; preds = %0
  %.pre = load ptr, ptr %1, align 8
  %3 = call ptr asm sideeffect "", "=r,0,~{dirflag},~{fpsr},~{flags}"(ptr %.pre) #16, !srcloc !7
  %4 = load ptr, ptr %1, align 8
  %.not.i.i.i = icmp eq ptr %4, null
  br i1 %.not.i.i.i, label %_ZNSt6vectorIiSaIiEED2Ev.exit, label %5

5:                                                ; preds = %_ZNSt6vectorIiSaIiEE6resizeEmRKi.exit
  call void @_ZdlPv(ptr noundef nonnull %4) #20
  br label %_ZNSt6vectorIiSaIiEED2Ev.exit

_ZNSt6vectorIiSaIiEED2Ev.exit:                    ; preds = %_ZNSt6vectorIiSaIiEE6resizeEmRKi.exit, %5
  ret void

6:                                                ; preds = %0
  %7 = landingpad { ptr, i32 }
          cleanup
  %8 = load ptr, ptr %1, align 8
  %.not.i.i.i1 = icmp eq ptr %8, null
  br i1 %.not.i.i.i1, label %_ZNSt6vectorIiSaIiEED2Ev.exit2, label %9

9:                                                ; preds = %6
  call void @_ZdlPv(ptr noundef nonnull %8) #20
  br label %_ZNSt6vectorIiSaIiEED2Ev.exit2

_ZNSt6vectorIiSaIiEED2Ev.exit2:                   ; preds = %6, %9
  resume { ptr, i32 } %7
}